target datalayout = "e-m:e-p270:32:32-p271:32:32-p272:64:64-i64:64-i128:128-f80:128-n8:16:32:64-S128"
target triple = "x86_64-pc-linux-gnu"

%class.CryptData = type { [4 x %"struct.CryptData::KDF3CacheItem"], i32, [4 x i8], [4 x %"struct.CryptData::KDF5CacheItem"], i32, i32, %class.Rijndael, [256 x i32], [256 x i8], [4 x i32], [3 x i8], [4 x i16], [4 x i8] }
%"struct.CryptData::KDF3CacheItem" = type { %class.SecPassword, [8 x i8], [16 x i8], [16 x i8], i8, [7 x i8] }
%class.SecPassword = type <{ %"class.std::vector", i8, [7 x i8] }>
%"class.std::vector" = type { %"struct.std::_Vector_base" }
%"struct.std::_Vector_base" = type { %"struct.std::_Vector_base<wchar_t, std::allocator<wchar_t>>::_Vector_impl" }
%"struct.std::_Vector_base<wchar_t, std::allocator<wchar_t>>::_Vector_impl" = type { %"struct.std::_Vector_base<wchar_t, std::allocator<wchar_t>>::_Vector_impl_data" }
%"struct.std::_Vector_base<wchar_t, std::allocator<wchar_t>>::_Vector_impl_data" = type { ptr, ptr, ptr }
%"struct.CryptData::KDF5CacheItem" = type { %class.SecPassword, [16 x i8], [32 x i8], i32, [32 x i8], [32 x i8], [4 x i8] }
%class.Rijndael = type { i8, i32, [16 x i8], [15 x [4 x [4 x i8]]] }

; Function Attrs: mustprogress nounwind uwtable
define void @_ZN9CryptData18SetCmt13EncryptionEv(ptr noundef nonnull align 8 dereferenceable(2516) %0) #0 align 2 {
  %2 = alloca ptr, align 8
  store ptr %0, ptr %2, align 8
  %3 = load ptr, ptr %2, align 8
  %4 = getelementptr inbounds %class.CryptData, ptr %3, i32 0, i32 5
  store i32 1, ptr %4, align 4
  %5 = getelementptr inbounds %class.CryptData, ptr %3, i32 0, i32 10
  %6 = getelementptr inbounds [3 x i8], ptr %5, i64 0, i64 0
  store i8 0, ptr %6, align 8
  %7 = getelementptr inbounds %class.CryptData, ptr %3, i32 0, i32 10
  %8 = getelementptr inbounds [3 x i8], ptr %7, i64 0, i64 1
  store i8 7, ptr %8, align 1
  %9 = getelementptr inbounds %class.CryptData, ptr %3, i32 0, i32 10
  %10 = getelementptr inbounds [3 x i8], ptr %9, i64 0, i64 2
  store i8 77, ptr %10, align 2
  ret void
}