; Function Attrs: mustprogress nofree norecurse nosync nounwind willreturn memory(argmem: write) uwtable
define void @_ZN9CryptData18SetCmt13EncryptionEv(ptr noundef nonnull writeonly align 8 captures(none) dereferenceable(2516) initializes((940, 944), (2504, 2507)) %0) local_unnamed_addr #4 align 2 {
  %2 = getelementptr inbounds nuw i8, ptr %0, i64 940
  store i32 1, ptr %2, align 4
  %3 = getelementptr inbounds nuw i8, ptr %0, i64 2504
  store i8 0, ptr %3, align 8
  %4 = getelementptr inbounds nuw i8, ptr %0, i64 2505
  store i8 7, ptr %4, align 1
  %5 = getelementptr inbounds nuw i8, ptr %0, i64 2506
  store i8 77, ptr %5, align 2
  ret void
}